target datalayout = "e-m:e-p270:32:32-p271:32:32-p272:64:64-i64:64-i128:128-f80:128-n8:16:32:64-S128"
target triple = "x86_64-pc-linux-gnu"

%struct.ImVector = type { i32, i32, ptr }
%struct.ImVector.0 = type { i32, i32, ptr }
%struct.ImVector.2 = type { i32, i32, ptr }
%struct.ImGuiStorage = type { %struct.ImVector.4 }
%struct.ImVector.4 = type { i32, i32, ptr }
%struct.ImVector.15 = type { i32, i32, ptr }
%struct.ImVector.19 = type { i32, i32, ptr }
%struct.ImVector.20 = type { i32, i32, ptr }
%struct.ImRect = type { %struct.ImVec2, %struct.ImVec2 }
%struct.ImVector.30 = type { i32, i32, ptr }
%struct.ImVec2 = type { float, float }
%struct.ImGuiTextBuffer = type { %struct.ImVector.28 }
%struct.ImVec4 = type { float, float, float, float }
%struct.ImVector.28 = type { i32, i32, ptr }
%struct.ImDrawListSplitter = type { i32, i32, %struct.ImVector.20 }
%struct.ImVec1 = type { float }
%struct.ImGuiTableInstanceData = type { i32, float, float, float, i32, i32 }
%struct.ImGuiTableColumn = type <{ i32, float, float, float, float, float, float, float, float, %struct.ImRect, i32, float, float, float, float, float, float, float, i16, i16, i16, i16, i16, i16, i16, i16, i16, i8, i8, i8, i8, i8, i8, i8, i8, i8, i8, i8, i8, i8, i8 }>
%struct.ImGuiWindow = type <{ ptr, ptr, i32, i32, i32, [4 x i8], ptr, %struct.ImVec2, %struct.ImVec2, %struct.ImVec2, %struct.ImVec2, %struct.ImVec2, %struct.ImVec2, %struct.ImVec2, float, float, float, float, float, float, float, float, float, float, i32, i32, i32, i32, %struct.ImVec2, %struct.ImVec2, %struct.ImVec2, %struct.ImVec2, %struct.ImVec2, %struct.ImVec2, i8, i8, i8, i8, i8, i8, i8, i8, i8, i8, i8, i8, i8, i8, i8, i8, i16, i16, i16, i16, i16, i8, i8, i8, [3 x i8], i32, i8, i8, i8, i8, i32, %struct.ImVec2, %struct.ImVec2, [4 x i8], %struct.ImVector.30, %struct.ImGuiWindowTempData, %struct.ImRect, %struct.ImRect, %struct.ImRect, %struct.ImRect, %struct.ImRect, %struct.ImRect, %struct.ImRect, %struct.ImVec2ih, %struct.ImVec2ih, i32, float, float, [4 x i8], %struct.ImGuiStorage, %struct.ImVector.35, float, float, float, i32, ptr, %struct.ImDrawList, ptr, ptr, ptr, ptr, ptr, ptr, ptr, ptr, [2 x i32], [2 x %struct.ImRect], [2 x %struct.ImVec2], i32, i32, i32, i8, [3 x i8] }>
%struct.ImGuiWindowTempData = type { %struct.ImVec2, %struct.ImVec2, %struct.ImVec2, %struct.ImVec2, %struct.ImVec2, %struct.ImVec2, %struct.ImVec2, float, float, i8, i8, %struct.ImVec1, %struct.ImVec1, %struct.ImVec1, %struct.ImVec2, i32, i16, i16, i8, i8, i8, i8, %struct.ImVec2, %struct.ImGuiMenuColumns, i32, i32, %struct.ImVector.2, ptr, ptr, i32, i32, i32, i32, i32, i32, float, float, %struct.ImVector.19, %struct.ImVector.19 }
%struct.ImGuiMenuColumns = type <{ i32, i32, i16, i16, i16, i16, i16, [4 x i16], [2 x i8] }>
%struct.ImVec2ih = type { i16, i16 }
%struct.ImVector.35 = type { i32, i32, ptr }
%struct.ImDrawList = type { %struct.ImVector.36, %struct.ImVector, %struct.ImVector.37, i32, i32, ptr, ptr, ptr, %struct.ImVector.0, %struct.ImDrawCmdHeader, %struct.ImDrawListSplitter, %struct.ImVector.38, %struct.ImVector.39, %struct.ImVector.15, float, ptr }
%struct.ImVector.36 = type { i32, i32, ptr }
%struct.ImVector.37 = type { i32, i32, ptr }
%struct.ImDrawCmdHeader = type <{ %struct.ImVec4, i64, i32, [4 x i8] }>
%struct.ImVector.38 = type { i32, i32, ptr }
%struct.ImVector.39 = type { i32, i32, ptr }
%struct.ImGuiTable = type <{ i32, i32, ptr, ptr, %struct.ImSpan, %struct.ImSpan.41, %struct.ImSpan.42, ptr, ptr, ptr, i32, i32, i32, i32, i32, i32, i16, i16, float, float, float, float, float, float, i32, i32, [2 x i32], i32, i32, float, float, float, float, float, float, float, float, float, float, float, float, float, float, float, float, float, %struct.ImRect, %struct.ImRect, %struct.ImRect, %struct.ImRect, %struct.ImRect, %struct.ImRect, %struct.ImRect, %struct.ImRect, %struct.ImRect, ptr, ptr, %struct.ImGuiTextBuffer, ptr, %struct.ImGuiTableInstanceData, %struct.ImVector.43, %struct.ImGuiTableColumnSortSpecs, [4 x i8], %struct.ImVector.44, %struct.ImGuiTableSortSpecs, i16, i16, i16, i16, i16, i16, i16, i16, i16, i16, i16, i16, i16, i16, i16, i16, i16, i16, i16, i16, i16, i16, i16, i16, i16, i16, i16, i8, i8, i8, i8, i8, i8, i8, i8, i8, i8, i8, i8, i8, i8, i8, i8, i8, i8, i8, i8, i8, [5 x i8] }>
%struct.ImSpan = type { ptr, ptr }
%struct.ImSpan.41 = type { ptr, ptr }
%struct.ImSpan.42 = type { ptr, ptr }
%struct.ImVector.43 = type { i32, i32, ptr }
%struct.ImGuiTableColumnSortSpecs = type <{ i32, i16, i16, i8, [3 x i8] }>
%struct.ImVector.44 = type { i32, i32, ptr }
%struct.ImGuiTableSortSpecs = type <{ ptr, i32, i8, [3 x i8] }>

; Function Attrs: inlinehint mustprogress nounwind uwtable
define internal noundef float @_ZL5ImMaxIfET_S0_S0_(float noundef %0, float noundef %1) #4 {
  %3 = alloca float, align 4
  %4 = alloca float, align 4
  store float %0, ptr %3, align 4, !tbaa !16
  store float %1, ptr %4, align 4, !tbaa !16
  %5 = load float, ptr %3, align 4, !tbaa !16
  %6 = load float, ptr %4, align 4, !tbaa !16
  %7 = fcmp oge float %5, %6
  br i1 %7, label %8, label %10

8:                                                ; preds = %2
  %9 = load float, ptr %3, align 4, !tbaa !16
  br label %12

10:                                               ; preds = %2
  %11 = load float, ptr %4, align 4, !tbaa !16
  br label %12

12:                                               ; preds = %10, %8
  %13 = phi float [ %9, %8 ], [ %11, %10 ]
  ret float %13
}

; Function Attrs: inlinehint mustprogress nounwind uwtable
define linkonce_odr noundef nonnull align 4 dereferenceable(115) ptr @_ZN6ImSpanI16ImGuiTableColumnEixEi(ptr noundef nonnull align 8 dereferenceable(16) %0, i32 noundef %1) #4 comdat align 2 {
  %3 = alloca ptr, align 8
  %4 = alloca i32, align 4
  %5 = alloca ptr, align 8
  store ptr %0, ptr %3, align 8, !tbaa !345
  store i32 %1, ptr %4, align 4, !tbaa !3
  %6 = load ptr, ptr %3, align 8
  call void @llvm.lifetime.start.p0(i64 8, ptr %5) #8
  %7 = getelementptr inbounds nuw %struct.ImSpan, ptr %6, i32 0, i32 0
  %8 = load ptr, ptr %7, align 8, !tbaa !348
  %9 = load i32, ptr %4, align 4, !tbaa !3
  %10 = sext i32 %9 to i64
  %11 = getelementptr inbounds %struct.ImGuiTableColumn, ptr %8, i64 %10
  store ptr %11, ptr %5, align 8, !tbaa !265
  %12 = load ptr, ptr %5, align 8, !tbaa !265
  call void @llvm.lifetime.end.p0(i64 8, ptr %5) #8
  ret ptr %12
}

; Function Attrs: mustprogress uwtable
define void @_ZN5ImGui12TableEndCellEP10ImGuiTable(ptr noundef %0) #0 {
  %2 = alloca ptr, align 8
  %3 = alloca ptr, align 8
  %4 = alloca ptr, align 8
  %5 = alloca ptr, align 8
  store ptr %0, ptr %2, align 8, !tbaa !167
  call void @llvm.lifetime.start.p0(i64 8, ptr %3) #8
  %6 = load ptr, ptr %2, align 8, !tbaa !167
  %7 = getelementptr inbounds nuw %struct.ImGuiTable, ptr %6, i32 0, i32 4
  %8 = load ptr, ptr %2, align 8, !tbaa !167
  %9 = getelementptr inbounds nuw %struct.ImGuiTable, ptr %8, i32 0, i32 15
  %10 = load i32, ptr %9, align 4, !tbaa !235
  %11 = call noundef nonnull align 4 dereferenceable(115) ptr @_ZN6ImSpanI16ImGuiTableColumnEixEi(ptr noundef nonnull align 8 dereferenceable(16) %7, i32 noundef %10)
  store ptr %11, ptr %3, align 8, !tbaa !265
  call void @llvm.lifetime.start.p0(i64 8, ptr %4) #8
  %12 = load ptr, ptr %2, align 8, !tbaa !167
  %13 = getelementptr inbounds nuw %struct.ImGuiTable, ptr %12, i32 0, i32 56
  %14 = load ptr, ptr %13, align 8, !tbaa !198
  store ptr %14, ptr %4, align 8, !tbaa !18
  %15 = load ptr, ptr %4, align 8, !tbaa !18
  %16 = getelementptr inbounds nuw %struct.ImGuiWindow, ptr %15, i32 0, i32 69
  %17 = getelementptr inbounds nuw %struct.ImGuiWindowTempData, ptr %16, i32 0, i32 10
  %18 = load i8, ptr %17, align 1, !tbaa !576, !range !67, !noundef !68
  %19 = trunc i8 %18 to i1
  br i1 %19, label %20, label %21

20:                                               ; preds = %1
  call void @_ZN5ImGui51ErrorCheckUsingSetCursorPosToExtendParentBoundariesEv()
  br label %21

21:                                               ; preds = %20, %1
  call void @llvm.lifetime.start.p0(i64 8, ptr %5) #8
  %22 = load ptr, ptr %2, align 8, !tbaa !167
  %23 = getelementptr inbounds nuw %struct.ImGuiTable, ptr %22, i32 0, i32 24
  %24 = load i32, ptr %23, align 4
  %25 = shl i32 %24, 16
  %26 = ashr i32 %25, 16
  %27 = and i32 %26, 1
  %28 = icmp ne i32 %27, 0
  br i1 %28, label %29, label %32

29:                                               ; preds = %21
  %30 = load ptr, ptr %3, align 8, !tbaa !265
  %31 = getelementptr inbounds nuw %struct.ImGuiTableColumn, ptr %30, i32 0, i32 16
  store ptr %31, ptr %5, align 8, !tbaa !340
  br label %45

32:                                               ; preds = %21
  %33 = load ptr, ptr %2, align 8, !tbaa !167
  %34 = getelementptr inbounds nuw %struct.ImGuiTable, ptr %33, i32 0, i32 105
  %35 = load i8, ptr %34, align 1, !tbaa !249, !range !67, !noundef !68
  %36 = trunc i8 %35 to i1
  br i1 %36, label %37, label %40

37:                                               ; preds = %32
  %38 = load ptr, ptr %3, align 8, !tbaa !265
  %39 = getelementptr inbounds nuw %struct.ImGuiTableColumn, ptr %38, i32 0, i32 15
  br label %43

40:                                               ; preds = %32
  %41 = load ptr, ptr %3, align 8, !tbaa !265
  %42 = getelementptr inbounds nuw %struct.ImGuiTableColumn, ptr %41, i32 0, i32 14
  br label %43

43:                                               ; preds = %40, %37
  %44 = phi ptr [ %39, %37 ], [ %42, %40 ]
  store ptr %44, ptr %5, align 8, !tbaa !340
  br label %45

45:                                               ; preds = %43, %29
  %46 = load ptr, ptr %5, align 8, !tbaa !340
  %47 = load float, ptr %46, align 4, !tbaa !16
  %48 = load ptr, ptr %4, align 8, !tbaa !18
  %49 = getelementptr inbounds nuw %struct.ImGuiWindow, ptr %48, i32 0, i32 69
  %50 = getelementptr inbounds nuw %struct.ImGuiWindowTempData, ptr %49, i32 0, i32 3
  %51 = getelementptr inbounds nuw %struct.ImVec2, ptr %50, i32 0, i32 0
  %52 = load float, ptr %51, align 8, !tbaa !499
  %53 = call noundef float @_ZL5ImMaxIfET_S0_S0_(float noundef %47, float noundef %52)
  %54 = load ptr, ptr %5, align 8, !tbaa !340
  store float %53, ptr %54, align 4, !tbaa !16
  %55 = load ptr, ptr %3, align 8, !tbaa !265
  %56 = getelementptr inbounds nuw %struct.ImGuiTableColumn, ptr %55, i32 0, i32 27
  %57 = load i8, ptr %56, align 2, !tbaa !291, !range !67, !noundef !68
  %58 = trunc i8 %57 to i1
  br i1 %58, label %59, label %75

59:                                               ; preds = %45
  %60 = load ptr, ptr %2, align 8, !tbaa !167
  %61 = getelementptr inbounds nuw %struct.ImGuiTable, ptr %60, i32 0, i32 19
  %62 = load float, ptr %61, align 8, !tbaa !241
  %63 = load ptr, ptr %4, align 8, !tbaa !18
  %64 = getelementptr inbounds nuw %struct.ImGuiWindow, ptr %63, i32 0, i32 69
  %65 = getelementptr inbounds nuw %struct.ImGuiWindowTempData, ptr %64, i32 0, i32 3
  %66 = getelementptr inbounds nuw %struct.ImVec2, ptr %65, i32 0, i32 1
  %67 = load float, ptr %66, align 4, !tbaa !496
  %68 = load ptr, ptr %2, align 8, !tbaa !167
  %69 = getelementptr inbounds nuw %struct.ImGuiTable, ptr %68, i32 0, i32 21
  %70 = load float, ptr %69, align 8, !tbaa !244
  %71 = fadd float %67, %70
  %72 = call noundef float @_ZL5ImMaxIfET_S0_S0_(float noundef %62, float noundef %71)
  %73 = load ptr, ptr %2, align 8, !tbaa !167
  %74 = getelementptr inbounds nuw %struct.ImGuiTable, ptr %73, i32 0, i32 19
  store float %72, ptr %74, align 8, !tbaa !241
  br label %75

75:                                               ; preds = %59, %45
  %76 = load ptr, ptr %4, align 8, !tbaa !18
  %77 = getelementptr inbounds nuw %struct.ImGuiWindow, ptr %76, i32 0, i32 69
  %78 = getelementptr inbounds nuw %struct.ImGuiWindowTempData, ptr %77, i32 0, i32 35
  %79 = load float, ptr %78, align 8, !tbaa !220
  %80 = load ptr, ptr %3, align 8, !tbaa !265
  %81 = getelementptr inbounds nuw %struct.ImGuiTableColumn, ptr %80, i32 0, i32 13
  store float %79, ptr %81, align 4, !tbaa !449
  %82 = load ptr, ptr %2, align 8, !tbaa !167
  %83 = getelementptr inbounds nuw %struct.ImGuiTable, ptr %82, i32 0, i32 22
  %84 = load float, ptr %83, align 4, !tbaa !243
  %85 = load ptr, ptr %4, align 8, !tbaa !18
  %86 = getelementptr inbounds nuw %struct.ImGuiWindow, ptr %85, i32 0, i32 69
  %87 = getelementptr inbounds nuw %struct.ImGuiWindowTempData, ptr %86, i32 0, i32 8
  %88 = load float, ptr %87, align 4, !tbaa !574
  %89 = call noundef float @_ZL5ImMaxIfET_S0_S0_(float noundef %84, float noundef %88)
  %90 = load ptr, ptr %2, align 8, !tbaa !167
  %91 = getelementptr inbounds nuw %struct.ImGuiTable, ptr %90, i32 0, i32 22
  store float %89, ptr %91, align 4, !tbaa !243
  call void @llvm.lifetime.end.p0(i64 8, ptr %5) #8
  call void @llvm.lifetime.end.p0(i64 8, ptr %4) #8
  call void @llvm.lifetime.end.p0(i64 8, ptr %3) #8
  ret void
}